target datalayout = "e-m:e-p270:32:32-p271:32:32-p272:64:64-i64:64-i128:128-f80:128-n8:16:32:64-S128"
target triple = "x86_64-pc-linux-gnu"

; Function Attrs: nounwind uwtable
define hidden i32 @ssl_fill_hello_random(ptr noundef %0, i64 noundef %1, i32 noundef %2) #0 {
  %4 = alloca i32, align 4
  %5 = alloca ptr, align 8
  %6 = alloca i64, align 8
  %7 = alloca i32, align 4
  %8 = alloca i32, align 4
  %9 = alloca ptr, align 8
  %10 = alloca i32, align 4
  store ptr %0, ptr %5, align 8, !tbaa !49
  store i64 %1, ptr %6, align 8, !tbaa !78
  store i32 %2, ptr %7, align 4, !tbaa !11
  %11 = load i32, ptr %7, align 4, !tbaa !11
  %12 = icmp ne i32 %11, 0
  br i1 %12, label %13, label %46

13:                                               ; preds = %3
  call void @llvm.lifetime.start.p0(i64 4, ptr %8) #6
  %14 = call i64 @time(ptr noundef null) #6
  %15 = trunc i64 %14 to i32
  store i32 %15, ptr %8, align 4, !tbaa !11
  call void @llvm.lifetime.start.p0(i64 8, ptr %9) #6
  %16 = load ptr, ptr %5, align 8, !tbaa !49
  store ptr %16, ptr %9, align 8, !tbaa !49
  %17 = load i64, ptr %6, align 8, !tbaa !78
  %18 = icmp ult i64 %17, 4
  br i1 %18, label %19, label %20

19:                                               ; preds = %13
  store i32 0, ptr %4, align 4
  store i32 1, ptr %10, align 4
  br label %45

20:                                               ; preds = %13
  %21 = load i32, ptr %8, align 4, !tbaa !11
  %22 = lshr i32 %21, 24
  %23 = trunc i32 %22 to i8
  %24 = load ptr, ptr %9, align 8, !tbaa !49
  %25 = getelementptr inbounds i8, ptr %24, i64 0
  store i8 %23, ptr %25, align 1, !tbaa !82
  %26 = load i32, ptr %8, align 4, !tbaa !11
  %27 = lshr i32 %26, 16
  %28 = trunc i32 %27 to i8
  %29 = load ptr, ptr %9, align 8, !tbaa !49
  %30 = getelementptr inbounds i8, ptr %29, i64 1
  store i8 %28, ptr %30, align 1, !tbaa !82
  %31 = load i32, ptr %8, align 4, !tbaa !11
  %32 = lshr i32 %31, 8
  %33 = trunc i32 %32 to i8
  %34 = load ptr, ptr %9, align 8, !tbaa !49
  %35 = getelementptr inbounds i8, ptr %34, i64 2
  store i8 %33, ptr %35, align 1, !tbaa !82
  %36 = load i32, ptr %8, align 4, !tbaa !11
  %37 = trunc i32 %36 to i8
  %38 = load ptr, ptr %9, align 8, !tbaa !49
  %39 = getelementptr inbounds i8, ptr %38, i64 3
  store i8 %37, ptr %39, align 1, !tbaa !82
  %40 = load ptr, ptr %9, align 8, !tbaa !49
  %41 = getelementptr inbounds i8, ptr %40, i64 4
  %42 = load i64, ptr %6, align 8, !tbaa !78
  %43 = sub i64 %42, 4
  %44 = call i32 @RAND_bytes(ptr noundef %41, i64 noundef %43)
  store i32 %44, ptr %4, align 4
  store i32 1, ptr %10, align 4
  br label %45

45:                                               ; preds = %20, %19
  call void @llvm.lifetime.end.p0(i64 8, ptr %9) #6
  call void @llvm.lifetime.end.p0(i64 4, ptr %8) #6
  br label %50

46:                                               ; preds = %3
  %47 = load ptr, ptr %5, align 8, !tbaa !49
  %48 = load i64, ptr %6, align 8, !tbaa !78
  %49 = call i32 @RAND_bytes(ptr noundef %47, i64 noundef %48)
  store i32 %49, ptr %4, align 4
  br label %50

50:                                               ; preds = %46, %45
  %51 = load i32, ptr %4, align 4
  ret i32 %51
}