; Function Attrs: nounwind uwtable
define hidden i32 @ssl_fill_hello_random(ptr noundef %0, i64 noundef %1, i32 noundef %2) local_unnamed_addr #0 {
  %.not = icmp eq i32 %2, 0
  br i1 %.not, label %21, label %4

4:                                                ; preds = %3
  %5 = tail call i64 @time(ptr noundef null) #7
  %6 = icmp ult i64 %1, 4
  br i1 %6, label %23, label %7

7:                                                ; preds = %4
  %8 = lshr i64 %5, 24
  %9 = trunc i64 %8 to i8
  store i8 %9, ptr %0, align 1, !tbaa !78
  %10 = lshr i64 %5, 16
  %11 = trunc i64 %10 to i8
  %12 = getelementptr inbounds nuw i8, ptr %0, i64 1
  store i8 %11, ptr %12, align 1, !tbaa !78
  %13 = lshr i64 %5, 8
  %14 = trunc i64 %13 to i8
  %15 = getelementptr inbounds nuw i8, ptr %0, i64 2
  store i8 %14, ptr %15, align 1, !tbaa !78
  %16 = trunc i64 %5 to i8
  %17 = getelementptr inbounds nuw i8, ptr %0, i64 3
  store i8 %16, ptr %17, align 1, !tbaa !78
  %18 = getelementptr inbounds nuw i8, ptr %0, i64 4
  %19 = add i64 %1, -4
  %20 = tail call i32 @RAND_bytes(ptr noundef nonnull %18, i64 noundef %19) #7
  br label %23

21:                                               ; preds = %3
  %22 = tail call i32 @RAND_bytes(ptr noundef %0, i64 noundef %1) #7
  br label %23

23:                                               ; preds = %7, %4, %21
  %.1 = phi i32 [ %22, %21 ], [ %20, %7 ], [ 0, %4 ]
  ret i32 %.1
}